; Function Attrs: nounwind uwtable
define dso_local nonnull ptr @ldbRedisProtocolToHuman_Int(ptr noundef captures(none) %0, ptr noundef %1) local_unnamed_addr #0 {
  %3 = getelementptr inbounds nuw i8, ptr %1, i64 1
  %4 = tail call ptr @strchr(ptr noundef nonnull dereferenceable(1) %3, i32 noundef 13) #18
  %5 = load ptr, ptr %0, align 8, !tbaa !92
  %6 = ptrtoint ptr %4 to i64
  %7 = ptrtoint ptr %1 to i64
  %8 = xor i64 %7, -1
  %9 = add i64 %6, %8
  %10 = tail call ptr @sdscatlen(ptr noundef %5, ptr noundef nonnull %3, i64 noundef %9) #19
  store ptr %10, ptr %0, align 8, !tbaa !92
  %11 = getelementptr inbounds nuw i8, ptr %4, i64 2
  ret ptr %11
}